(dp0
Vengine
p1
Vxelatex
p2
sVpackages
p3
c__builtin__
set
p4
((lp5
Vmathspec
p6
aVpgfplots
p7
atp8
Rp9
sVfiles_with_guttermarks
p10
g4
((lp11
S'NewtonMethod_Background.tex'
p12
aV/Users/christopherchudzicki/Documents/jsinput-vectordraw/Notes_and_Examples/23_NewtonMethod/NewtonMethod_Background_Code/./NewtonMethod_Background.tex
p13
atp14
Rp15
sVsynctex
p16
I01
s.