(dp0
Vengine
p1
S'pdflatex'
p2
sVpackages
p3
c__builtin__
set
p4
((lp5
Vamsmath
p6
aVpgfplots
p7
atp8
Rp9
sVfiles_with_guttermarks
p10
g4
((lp11
V/Users/christopherchudzicki/Documents/jsinput-vectordraw/Notes_and_Examples/22_TangentLines/TangentLine_Background_Code/./TangentLine_Background_Code.tex
p12
aS'TangentLine_Background_Code.tex'
p13
atp14
Rp15
sVsynctex
p16
I01
s.