(dp0
Vengine
p1
Vxelatex
p2
sVpackages
p3
c__builtin__
set
p4
((lp5
Vmathspec
p6
aVpgfplots
p7
atp8
Rp9
sVfiles_with_guttermarks
p10
g4
((lp11
V/usr/local/texlive/2014/texmf-dist/tex/latex/amsmath/amsmath.sty
p12
aV/Users/christopherchudzicki/Documents/jsinput-vectordraw/Notes_and_Examples/22_TangentLines/TangentLine_Background_Code/./TangentLine_Background.tex
p13
aS'TangentLine_Background.tex'
p14
atp15
Rp16
sVsynctex
p17
I01
s.