(dp0
Vengine
p1
Vxelatex
p2
sVpackages
p3
c__builtin__
set
p4
((lp5
Vfilecontents
p6
aVmathspec
p7
aVpgfplots
p8
aVpgfplotstable
p9
atp10
Rp11
sVfiles_with_guttermarks
p12
g4
((lp13
V/Users/christopherchudzicki/Documents/jsinput-vectordraw/Notes_and_Examples/22_BestFit/BestFit_Background_Code/./BestFit_Background.tex
p14
aS'BestFit_Background.tex'
p15
atp16
Rp17
sVsynctex
p18
I01
s.